; Function Attrs: nounwind uwtable
define hidden void @zim_GlobIterator_count(ptr nocapture noundef readonly %0, ptr nocapture noundef writeonly %1) #0 {
  %3 = getelementptr inbounds i8, ptr %0, i64 44
  %4 = load i32, ptr %3, align 4
  %.not = icmp eq i32 %4, 0
  br i1 %.not, label %.critedge, label %5

5:                                                ; preds = %2
  tail call void @zend_wrong_parameters_none_error() #18
  %6 = load ptr, ptr getelementptr inbounds (%struct._zend_executor_globals, ptr @executor_globals, i64 0, i32 50), align 8
  %7 = icmp ne ptr %6, null
  tail call void @llvm.assume(i1 %7)
  br label %20

.critedge:                                        ; preds = %2
  %8 = getelementptr inbounds i8, ptr %0, i64 32
  %9 = load ptr, ptr %8, align 8
  %10 = getelementptr inbounds i8, ptr %9, i64 -312
  %11 = load ptr, ptr %10, align 8
  %.not8 = icmp eq ptr %11, null
  br i1 %.not8, label %19, label %12

12:                                               ; preds = %.critedge
  %13 = load ptr, ptr %11, align 8
  %14 = icmp eq ptr %13, @php_glob_stream_ops
  br i1 %14, label %15, label %19

15:                                               ; preds = %12
  %16 = tail call i32 @_php_glob_stream_get_count(ptr noundef nonnull %11, ptr noundef null) #18
  %17 = sext i32 %16 to i64
  store i64 %17, ptr %1, align 8
  %18 = getelementptr inbounds i8, ptr %1, i64 8
  store i32 4, ptr %18, align 8
  br label %20

19:                                               ; preds = %12, %.critedge
  tail call void (ptr, i32, ptr, ...) @php_error_docref(ptr noundef null, i32 noundef 1, ptr noundef nonnull @.str.15) #18
  br label %20

20:                                               ; preds = %19, %15, %5
  ret void
}